; ModuleID = 'source-C-CXX/23/2198.c'
source_filename = "source-C-CXX/23/2198.c"
target datalayout = "e-m:e-p270:32:32-p271:32:32-p272:64:64-i64:64-f80:128-n8:16:32:64-S128"
target triple = "x86_64-pc-linux-gnu"

@.str = private unnamed_addr constant [3 x i8] c"%s\00", align 1
@.str.1 = private unnamed_addr constant [3 x i8] c"%c\00", align 1

; Function Attrs: nofree nounwind sspstrong uwtable
define dso_local void @main() local_unnamed_addr #0 {
  %1 = alloca [50 x [15 x i8]], align 16
  %2 = alloca i8, align 1
  %3 = getelementptr inbounds [50 x [15 x i8]], [50 x [15 x i8]]* %1, i64 0, i64 0, i64 0
  call void @llvm.lifetime.start.p0i8(i64 750, i8* nonnull %3) #6
  call void @llvm.lifetime.start.p0i8(i64 1, i8* nonnull %2) #6
  br label %4

4:                                                ; preds = %4, %0
  %5 = phi i64 [ %8, %4 ], [ 1, %0 ]
  %6 = getelementptr inbounds [50 x [15 x i8]], [50 x [15 x i8]]* %1, i64 0, i64 %5
  %7 = call i32 (i8*, ...) @__isoc99_scanf(i8* getelementptr inbounds ([3 x i8], [3 x i8]* @.str, i64 0, i64 0), [15 x i8]* nonnull %6)
  %8 = add nuw i64 %5, 1
  %9 = call i32 (i8*, ...) @__isoc99_scanf(i8* getelementptr inbounds ([3 x i8], [3 x i8]* @.str.1, i64 0, i64 0), i8* nonnull %2)
  %10 = load i8, i8* %2, align 1, !tbaa !5
  %11 = icmp eq i8 %10, 10
  br i1 %11, label %12, label %4, !llvm.loop !8

12:                                               ; preds = %4
  %13 = trunc i64 %5 to i32
  %14 = call i32 @llvm.umax.i32(i32 %13, i32 1)
  %15 = add i32 %14, 1
  %16 = zext i32 %15 to i64
  br label %17

17:                                               ; preds = %12, %17
  %18 = phi i64 [ 1, %12 ], [ %35, %17 ]
  %19 = phi i32 [ 0, %12 ], [ %34, %17 ]
  %20 = phi i32 [ 0, %12 ], [ %30, %17 ]
  %21 = phi i32 [ 10, %12 ], [ %33, %17 ]
  %22 = phi i32 [ 0, %12 ], [ %28, %17 ]
  %23 = getelementptr inbounds [50 x [15 x i8]], [50 x [15 x i8]]* %1, i64 0, i64 %18, i64 0
  %24 = call i64 @strlen(i8* noundef nonnull %23) #7
  %25 = sext i32 %22 to i64
  %26 = icmp ugt i64 %24, %25
  %27 = trunc i64 %24 to i32
  %28 = select i1 %26, i32 %27, i32 %22
  %29 = trunc i64 %18 to i32
  %30 = select i1 %26, i32 %29, i32 %20
  %31 = zext i32 %21 to i64
  %32 = icmp ult i64 %24, %31
  %33 = select i1 %32, i32 %27, i32 %21
  %34 = select i1 %32, i32 %29, i32 %19
  %35 = add nuw nsw i64 %18, 1
  %36 = icmp eq i64 %35, %16
  br i1 %36, label %37, label %17, !llvm.loop !10

37:                                               ; preds = %17
  %38 = sext i32 %30 to i64
  %39 = getelementptr inbounds [50 x [15 x i8]], [50 x [15 x i8]]* %1, i64 0, i64 %38, i64 0
  %40 = call i32 @puts(i8* nonnull %39)
  %41 = sext i32 %34 to i64
  %42 = getelementptr inbounds [50 x [15 x i8]], [50 x [15 x i8]]* %1, i64 0, i64 %41, i64 0
  %43 = call i32 (i8*, ...) @printf(i8* nonnull dereferenceable(1) getelementptr inbounds ([3 x i8], [3 x i8]* @.str, i64 0, i64 0), i8* nonnull %42)
  call void @llvm.lifetime.end.p0i8(i64 1, i8* nonnull %2) #6
  call void @llvm.lifetime.end.p0i8(i64 750, i8* nonnull %3) #6
  ret void
}

; Function Attrs: argmemonly mustprogress nofree nosync nounwind willreturn
declare void @llvm.lifetime.start.p0i8(i64 immarg, i8* nocapture) #1

; Function Attrs: nofree nounwind
declare noundef i32 @__isoc99_scanf(i8* nocapture noundef readonly, ...) local_unnamed_addr #2

; Function Attrs: argmemonly mustprogress nofree nounwind readonly willreturn
declare i64 @strlen(i8* nocapture) local_unnamed_addr #3

; Function Attrs: nofree nounwind
declare noundef i32 @printf(i8* nocapture noundef readonly, ...) local_unnamed_addr #2

; Function Attrs: argmemonly mustprogress nofree nosync nounwind willreturn
declare void @llvm.lifetime.end.p0i8(i64 immarg, i8* nocapture) #1

; Function Attrs: nofree nounwind
declare noundef i32 @puts(i8* nocapture noundef readonly) local_unnamed_addr #4

; Function Attrs: nofree nosync nounwind readnone speculatable willreturn
declare i32 @llvm.umax.i32(i32, i32) #5


!llvm.module.flags = !{!0, !1, !2, !3}
!llvm.ident = !{!4}

!0 = !{i32 1, !"wchar_size", i32 4}
!1 = !{i32 7, !"PIC Level", i32 2}
!2 = !{i32 7, !"PIE Level", i32 2}
!3 = !{i32 7, !"uwtable", i32 1}
!4 = !{!"clang version 13.0.0"}
!5 = !{!6, !6, i64 0}
!6 = !{!"omnipotent char", !7, i64 0}
!7 = !{!"Simple C/C++ TBAA"}
!8 = distinct !{!8, !9}
!9 = !{!"llvm.loop.mustprogress"}
!10 = distinct !{!10, !9}
